; Function Attrs: nounwind uwtable
define hidden i32 @mbedtls_x509_get_subject_alt_name(ptr noundef %0, ptr noundef %1, ptr noundef captures(none) %2) local_unnamed_addr #0 {
  %4 = alloca i64, align 8
  call void @llvm.lifetime.start.p0(i64 8, ptr nonnull %4) #13
  %5 = call i32 @mbedtls_asn1_get_tag(ptr noundef %0, ptr noundef %1, ptr noundef nonnull %4, i32 noundef 48) #13
  %.not = icmp eq i32 %5, 0
  br i1 %.not, label %8, label %6

6:                                                ; preds = %3
  %7 = add nsw i32 %5, -9472
  br label %14

8:                                                ; preds = %3
  %9 = load ptr, ptr %0, align 8, !tbaa !3
  %10 = load i64, ptr %4, align 8, !tbaa !16
  %11 = getelementptr inbounds nuw i8, ptr %9, i64 %10
  %.not10 = icmp eq ptr %11, %1
  br i1 %.not10, label %12, label %14

12:                                               ; preds = %8
  %13 = call i32 @mbedtls_x509_get_subject_alt_name_ext(ptr noundef nonnull %0, ptr noundef %1, ptr noundef %2)
  br label %14

14:                                               ; preds = %8, %12, %6
  %.0 = phi i32 [ %7, %6 ], [ %13, %12 ], [ -9574, %8 ]
  call void @llvm.lifetime.end.p0(i64 8, ptr nonnull %4) #13
  ret i32 %.0
}